; Function Attrs: mustprogress uwtable
define void @_ZNK6casadi9Transpose10ad_reverseERKSt6vectorIS1_INS_2MXESaIS2_EESaIS4_EERS6_(ptr nonnull readnone align 8 captures(none) %0, ptr noundef nonnull readonly align 8 captures(none) dereferenceable(24) %1, ptr noundef nonnull readonly align 8 captures(none) dereferenceable(24) %2) unnamed_addr #3 align 2 personality ptr @__gxx_personality_v0 {
  %4 = alloca %"class.casadi::MX", align 8
  %5 = alloca %"class.casadi::MX", align 8
  %6 = getelementptr inbounds nuw i8, ptr %1, i64 8
  %7 = load ptr, ptr %6, align 8, !tbaa !82
  %8 = load ptr, ptr %1, align 8, !tbaa !85
  %.not = icmp eq ptr %7, %8
  br i1 %.not, label %._crit_edge, label %.lr.ph

._crit_edge:                                      ; preds = %18, %3
  ret void

.lr.ph:                                           ; preds = %3, %18
  %9 = phi ptr [ %21, %18 ], [ %8, %3 ]
  %.08 = phi i64 [ %19, %18 ], [ 0, %3 ]
  call void @llvm.lifetime.start.p0(i64 8, ptr nonnull %5) #21
  %10 = getelementptr inbounds nuw %"class.std::vector", ptr %9, i64 %.08
  %11 = load ptr, ptr %10, align 8, !tbaa !47
  call void @_ZNK6casadi2MX1TEv(ptr dead_on_unwind nonnull writable sret(%"class.casadi::MX") align 8 %5, ptr noundef nonnull align 8 dereferenceable(8) %11)
  %12 = load ptr, ptr %2, align 8, !tbaa !85
  %13 = getelementptr inbounds nuw %"class.std::vector", ptr %12, i64 %.08
  %14 = load ptr, ptr %13, align 8, !tbaa !47
  call void @llvm.lifetime.start.p0(i64 8, ptr nonnull %4) #21
  invoke void @_ZN6casadi2MX6binaryExRKS0_S2_(ptr dead_on_unwind nonnull writable sret(%"class.casadi::MX") align 8 %4, i64 noundef 1, ptr noundef nonnull align 8 dereferenceable(8) %14, ptr noundef nonnull align 8 dereferenceable(8) %5)
          to label %.noexc unwind label %27

.noexc:                                           ; preds = %.lr.ph
  %15 = invoke noundef nonnull align 8 dereferenceable(8) ptr @_ZN6casadi13GenericSharedINS_12SharedObjectENS_20SharedObjectInternalEEaSERKS3_(ptr noundef nonnull align 8 dereferenceable(8) %14, ptr noundef nonnull align 8 dereferenceable(8) %4)
          to label %18 unwind label %16

16:                                               ; preds = %.noexc
  %17 = landingpad { ptr, i32 }
          cleanup
  call void @_ZN6casadi2MXD1Ev(ptr noundef nonnull align 8 dereferenceable(8) %4) #21
  call void @llvm.lifetime.end.p0(i64 8, ptr nonnull %4) #21
  br label %.body

18:                                               ; preds = %.noexc
  call void @_ZN6casadi2MXD1Ev(ptr noundef nonnull align 8 dereferenceable(8) %4) #21
  call void @llvm.lifetime.end.p0(i64 8, ptr nonnull %4) #21
  call void @_ZN6casadi2MXD1Ev(ptr noundef nonnull align 8 dereferenceable(8) %5) #21
  call void @llvm.lifetime.end.p0(i64 8, ptr nonnull %5) #21
  %19 = add nuw nsw i64 %.08, 1
  %20 = load ptr, ptr %6, align 8, !tbaa !82
  %21 = load ptr, ptr %1, align 8, !tbaa !85
  %22 = ptrtoint ptr %20 to i64
  %23 = ptrtoint ptr %21 to i64
  %24 = sub i64 %22, %23
  %25 = sdiv exact i64 %24, 24
  %26 = icmp ult i64 %19, %25
  br i1 %26, label %.lr.ph, label %._crit_edge, !llvm.loop !87

27:                                               ; preds = %.lr.ph
  %28 = landingpad { ptr, i32 }
          cleanup
  br label %.body

.body:                                            ; preds = %16, %27
  %eh.lpad-body = phi { ptr, i32 } [ %28, %27 ], [ %17, %16 ]
  call void @_ZN6casadi2MXD1Ev(ptr noundef nonnull align 8 dereferenceable(8) %5) #21
  call void @llvm.lifetime.end.p0(i64 8, ptr nonnull %5) #21
  resume { ptr, i32 } %eh.lpad-body
}